target datalayout = "e-m:e-p270:32:32-p271:32:32-p272:64:64-i64:64-i128:128-f80:128-n8:16:32:64-S128"
target triple = "x86_64-pc-linux-gnu"

%struct._lv_fragment_manager_t = type { ptr, %struct.lv_ll_t, %struct.lv_ll_t }
%struct.lv_ll_t = type { i32, ptr, ptr }
%struct._lv_fragment_managed_states_t = type { ptr, ptr, ptr, ptr, i8, i8, i8 }
%struct._lv_fragment_t = type { ptr, ptr, ptr, ptr }
%struct._lv_fragment_class_t = type { ptr, ptr, ptr, ptr, ptr, ptr, ptr, ptr, ptr, i64 }

; Function Attrs: inlinehint nounwind uwtable
define internal void @lv_memzero(ptr noundef %0, i64 noundef %1) #3 {
  %3 = alloca ptr, align 8
  %4 = alloca i64, align 8
  store ptr %0, ptr %3, align 8, !tbaa !3
  store i64 %1, ptr %4, align 8, !tbaa !36
  %5 = load ptr, ptr %3, align 8, !tbaa !3
  %6 = load i64, ptr %4, align 8, !tbaa !36
  call void @lv_memset(ptr noundef %5, i8 noundef zeroext 0, i64 noundef %6)
  ret void
}

; Function Attrs: nounwind uwtable
define internal void @item_create_obj(ptr noundef %0) #0 {
  %2 = alloca ptr, align 8
  store ptr %0, ptr %2, align 8, !tbaa !3
  br label %3

3:                                                ; preds = %1
  %4 = load ptr, ptr %2, align 8, !tbaa !3
  %5 = getelementptr inbounds nuw %struct._lv_fragment_managed_states_t, ptr %4, i32 0, i32 3
  %6 = load ptr, ptr %5, align 8, !tbaa !13
  %7 = icmp ne ptr %6, null
  br i1 %7, label %12, label %8

8:                                                ; preds = %3
  br label %9

9:                                                ; preds = %8
  br label %10

10:                                               ; preds = %9
  br label %11

11:                                               ; preds = %10, %11
  br label %11

12:                                               ; preds = %3
  br label %13

13:                                               ; preds = %12
  %14 = load ptr, ptr %2, align 8, !tbaa !3
  %15 = getelementptr inbounds nuw %struct._lv_fragment_managed_states_t, ptr %14, i32 0, i32 3
  %16 = load ptr, ptr %15, align 8, !tbaa !13
  %17 = load ptr, ptr %2, align 8, !tbaa !3
  %18 = getelementptr inbounds nuw %struct._lv_fragment_managed_states_t, ptr %17, i32 0, i32 2
  %19 = load ptr, ptr %18, align 8, !tbaa !28
  %20 = icmp ne ptr %19, null
  br i1 %20, label %21, label %26

21:                                               ; preds = %13
  %22 = load ptr, ptr %2, align 8, !tbaa !3
  %23 = getelementptr inbounds nuw %struct._lv_fragment_managed_states_t, ptr %22, i32 0, i32 2
  %24 = load ptr, ptr %23, align 8, !tbaa !28
  %25 = load ptr, ptr %24, align 8, !tbaa !3
  br label %27

26:                                               ; preds = %13
  br label %27

27:                                               ; preds = %26, %21
  %28 = phi ptr [ %25, %21 ], [ null, %26 ]
  %29 = call ptr @lv_fragment_create_obj(ptr noundef %16, ptr noundef %28)
  ret void
}

; Function Attrs: nounwind uwtable
define internal ptr @fragment_attach(ptr noundef %0, ptr noundef %1, ptr noundef %2) #0 {
  %4 = alloca ptr, align 8
  %5 = alloca ptr, align 8
  %6 = alloca ptr, align 8
  %7 = alloca ptr, align 8
  store ptr %0, ptr %4, align 8, !tbaa !3
  store ptr %1, ptr %5, align 8, !tbaa !3
  store ptr %2, ptr %6, align 8, !tbaa !3
  br label %8

8:                                                ; preds = %3
  %9 = load ptr, ptr %4, align 8, !tbaa !3
  %10 = icmp ne ptr %9, null
  br i1 %10, label %15, label %11

11:                                               ; preds = %8
  br label %12

12:                                               ; preds = %11
  br label %13

13:                                               ; preds = %12
  br label %14

14:                                               ; preds = %13, %14
  br label %14

15:                                               ; preds = %8
  br label %16

16:                                               ; preds = %15
  br label %17

17:                                               ; preds = %16
  %18 = load ptr, ptr %5, align 8, !tbaa !3
  %19 = icmp ne ptr %18, null
  br i1 %19, label %24, label %20

20:                                               ; preds = %17
  br label %21

21:                                               ; preds = %20
  br label %22

22:                                               ; preds = %21
  br label %23

23:                                               ; preds = %22, %23
  br label %23

24:                                               ; preds = %17
  br label %25

25:                                               ; preds = %24
  br label %26

26:                                               ; preds = %25
  %27 = load ptr, ptr %5, align 8, !tbaa !3
  %28 = getelementptr inbounds nuw %struct._lv_fragment_t, ptr %27, i32 0, i32 1
  %29 = load ptr, ptr %28, align 8, !tbaa !21
  %30 = icmp eq ptr %29, null
  br i1 %30, label %35, label %31

31:                                               ; preds = %26
  br label %32

32:                                               ; preds = %31
  br label %33

33:                                               ; preds = %32
  br label %34

34:                                               ; preds = %33, %34
  br label %34

35:                                               ; preds = %26
  br label %36

36:                                               ; preds = %35
  call void @llvm.lifetime.start.p0(i64 8, ptr %7) #4
  %37 = load ptr, ptr %4, align 8, !tbaa !3
  %38 = getelementptr inbounds nuw %struct._lv_fragment_manager_t, ptr %37, i32 0, i32 1
  %39 = call ptr @lv_ll_ins_tail(ptr noundef %38)
  store ptr %39, ptr %7, align 8, !tbaa !3
  %40 = load ptr, ptr %7, align 8, !tbaa !3
  call void @lv_memzero(ptr noundef %40, i64 noundef 40)
  %41 = load ptr, ptr %5, align 8, !tbaa !3
  %42 = getelementptr inbounds nuw %struct._lv_fragment_t, ptr %41, i32 0, i32 0
  %43 = load ptr, ptr %42, align 8, !tbaa !16
  %44 = load ptr, ptr %7, align 8, !tbaa !3
  %45 = getelementptr inbounds nuw %struct._lv_fragment_managed_states_t, ptr %44, i32 0, i32 0
  store ptr %43, ptr %45, align 8, !tbaa !31
  %46 = load ptr, ptr %4, align 8, !tbaa !3
  %47 = load ptr, ptr %7, align 8, !tbaa !3
  %48 = getelementptr inbounds nuw %struct._lv_fragment_managed_states_t, ptr %47, i32 0, i32 1
  store ptr %46, ptr %48, align 8, !tbaa !32
  %49 = load ptr, ptr %6, align 8, !tbaa !3
  %50 = load ptr, ptr %7, align 8, !tbaa !3
  %51 = getelementptr inbounds nuw %struct._lv_fragment_managed_states_t, ptr %50, i32 0, i32 2
  store ptr %49, ptr %51, align 8, !tbaa !28
  %52 = load ptr, ptr %5, align 8, !tbaa !3
  %53 = load ptr, ptr %7, align 8, !tbaa !3
  %54 = getelementptr inbounds nuw %struct._lv_fragment_managed_states_t, ptr %53, i32 0, i32 3
  store ptr %52, ptr %54, align 8, !tbaa !13
  %55 = load ptr, ptr %7, align 8, !tbaa !3
  %56 = load ptr, ptr %5, align 8, !tbaa !3
  %57 = getelementptr inbounds nuw %struct._lv_fragment_t, ptr %56, i32 0, i32 1
  store ptr %55, ptr %57, align 8, !tbaa !21
  %58 = load ptr, ptr %5, align 8, !tbaa !3
  %59 = getelementptr inbounds nuw %struct._lv_fragment_t, ptr %58, i32 0, i32 0
  %60 = load ptr, ptr %59, align 8, !tbaa !16
  %61 = getelementptr inbounds nuw %struct._lv_fragment_class_t, ptr %60, i32 0, i32 2
  %62 = load ptr, ptr %61, align 8, !tbaa !33
  %63 = icmp ne ptr %62, null
  br i1 %63, label %64, label %71

64:                                               ; preds = %36
  %65 = load ptr, ptr %5, align 8, !tbaa !3
  %66 = getelementptr inbounds nuw %struct._lv_fragment_t, ptr %65, i32 0, i32 0
  %67 = load ptr, ptr %66, align 8, !tbaa !16
  %68 = getelementptr inbounds nuw %struct._lv_fragment_class_t, ptr %67, i32 0, i32 2
  %69 = load ptr, ptr %68, align 8, !tbaa !33
  %70 = load ptr, ptr %5, align 8, !tbaa !3
  call void %69(ptr noundef %70)
  br label %71

71:                                               ; preds = %64, %36
  %72 = load ptr, ptr %7, align 8, !tbaa !3
  call void @llvm.lifetime.end.p0(i64 8, ptr %7) #4
  ret ptr %72
}

; Function Attrs: nounwind uwtable
define void @lv_fragment_manager_add(ptr noundef %0, ptr noundef %1, ptr noundef %2) #0 {
  %4 = alloca ptr, align 8
  %5 = alloca ptr, align 8
  %6 = alloca ptr, align 8
  %7 = alloca ptr, align 8
  store ptr %0, ptr %4, align 8, !tbaa !3
  store ptr %1, ptr %5, align 8, !tbaa !3
  store ptr %2, ptr %6, align 8, !tbaa !3
  call void @llvm.lifetime.start.p0(i64 8, ptr %7) #4
  %8 = load ptr, ptr %4, align 8, !tbaa !3
  %9 = load ptr, ptr %5, align 8, !tbaa !3
  %10 = load ptr, ptr %6, align 8, !tbaa !3
  %11 = call ptr @fragment_attach(ptr noundef %8, ptr noundef %9, ptr noundef %10)
  store ptr %11, ptr %7, align 8, !tbaa !3
  %12 = load ptr, ptr %4, align 8, !tbaa !3
  %13 = getelementptr inbounds nuw %struct._lv_fragment_manager_t, ptr %12, i32 0, i32 0
  %14 = load ptr, ptr %13, align 8, !tbaa !7
  %15 = icmp ne ptr %14, null
  br i1 %15, label %16, label %25

16:                                               ; preds = %3
  %17 = load ptr, ptr %4, align 8, !tbaa !3
  %18 = getelementptr inbounds nuw %struct._lv_fragment_manager_t, ptr %17, i32 0, i32 0
  %19 = load ptr, ptr %18, align 8, !tbaa !7
  %20 = getelementptr inbounds nuw %struct._lv_fragment_t, ptr %19, i32 0, i32 1
  %21 = load ptr, ptr %20, align 8, !tbaa !21
  %22 = getelementptr inbounds nuw %struct._lv_fragment_managed_states_t, ptr %21, i32 0, i32 4
  %23 = load i8, ptr %22, align 8, !tbaa !30, !range !23, !noundef !24
  %24 = trunc i8 %23 to i1
  br i1 %24, label %25, label %27

25:                                               ; preds = %16, %3
  %26 = load ptr, ptr %7, align 8, !tbaa !3
  call void @item_create_obj(ptr noundef %26)
  br label %27

27:                                               ; preds = %25, %16
  call void @llvm.lifetime.end.p0(i64 8, ptr %7) #4
  ret void
}