; Function Attrs: nounwind uwtable
define void @lv_fragment_manager_add(ptr noundef %0, ptr noundef %1, ptr noundef %2) local_unnamed_addr #0 {
  %.not.i = icmp eq ptr %0, null
  br i1 %.not.i, label %.preheader.i, label %4

.preheader.i:                                     ; preds = %3, %.preheader.i
  br label %.preheader.i

4:                                                ; preds = %3
  %.not21.i = icmp eq ptr %1, null
  br i1 %.not21.i, label %.preheader23.i, label %5

.preheader23.i:                                   ; preds = %4, %.preheader23.i
  br label %.preheader23.i

5:                                                ; preds = %4
  %6 = getelementptr inbounds nuw i8, ptr %1, i64 8
  %7 = load ptr, ptr %6, align 8, !tbaa !18
  %8 = icmp eq ptr %7, null
  br i1 %8, label %9, label %.preheader24.i

.preheader24.i:                                   ; preds = %5, %.preheader24.i
  br label %.preheader24.i

9:                                                ; preds = %5
  %10 = getelementptr inbounds nuw i8, ptr %0, i64 8
  %11 = tail call ptr @lv_ll_ins_tail(ptr noundef nonnull %10) #3
  tail call void @lv_memset(ptr noundef %11, i8 noundef zeroext 0, i64 noundef 40) #3
  %12 = load ptr, ptr %1, align 8, !tbaa !13
  store ptr %12, ptr %11, align 8, !tbaa !30
  %13 = getelementptr inbounds nuw i8, ptr %11, i64 8
  store ptr %0, ptr %13, align 8, !tbaa !31
  %14 = getelementptr inbounds nuw i8, ptr %11, i64 16
  store ptr %2, ptr %14, align 8, !tbaa !26
  %15 = getelementptr inbounds nuw i8, ptr %11, i64 24
  store ptr %1, ptr %15, align 8, !tbaa !10
  store ptr %11, ptr %6, align 8, !tbaa !18
  %16 = getelementptr inbounds nuw i8, ptr %12, i64 16
  %17 = load ptr, ptr %16, align 8, !tbaa !32
  %.not22.i = icmp eq ptr %17, null
  br i1 %.not22.i, label %fragment_attach.exit, label %18

18:                                               ; preds = %9
  tail call void %17(ptr noundef nonnull %1) #3
  br label %fragment_attach.exit

fragment_attach.exit:                             ; preds = %9, %18
  %19 = load ptr, ptr %0, align 8, !tbaa !3
  %.not = icmp eq ptr %19, null
  br i1 %.not, label %26, label %20

20:                                               ; preds = %fragment_attach.exit
  %21 = getelementptr inbounds nuw i8, ptr %19, i64 8
  %22 = load ptr, ptr %21, align 8, !tbaa !18
  %23 = getelementptr inbounds nuw i8, ptr %22, i64 32
  %24 = load i8, ptr %23, align 8, !tbaa !33, !range !22, !noundef !23
  %25 = trunc nuw i8 %24 to i1
  br i1 %25, label %26, label %34

26:                                               ; preds = %20, %fragment_attach.exit
  %27 = load ptr, ptr %15, align 8, !tbaa !10
  %.not.i6 = icmp eq ptr %27, null
  br i1 %.not.i6, label %.preheader.i7, label %28

.preheader.i7:                                    ; preds = %26, %.preheader.i7
  br label %.preheader.i7

28:                                               ; preds = %26
  %29 = load ptr, ptr %14, align 8, !tbaa !26
  %.not5.i = icmp eq ptr %29, null
  br i1 %.not5.i, label %item_create_obj.exit, label %30

30:                                               ; preds = %28
  %31 = load ptr, ptr %29, align 8, !tbaa !27
  br label %item_create_obj.exit

item_create_obj.exit:                             ; preds = %28, %30
  %32 = phi ptr [ %31, %30 ], [ null, %28 ]
  %33 = tail call ptr @lv_fragment_create_obj(ptr noundef nonnull %27, ptr noundef %32) #3
  br label %34

34:                                               ; preds = %item_create_obj.exit, %20
  ret void
}